target datalayout = "e-m:e-p270:32:32-p271:32:32-p272:64:64-i64:64-i128:128-f80:128-n8:16:32:64-S128"
target triple = "x86_64-pc-linux-gnu"

%class.MutexUnlocker = type <{ ptr, i8, [7 x i8] }>

@UseJVMCINativeLibrary = external global i8, align 1
@CompileThread_lock = external global ptr, align 8
@.str.9 = private unnamed_addr constant [30 x i8] c"stopping idle compiler thread\00", align 1

; Function Attrs: mustprogress nounwind uwtable
define linkonce_odr hidden void @_ZN13MutexUnlockerD2Ev(ptr noundef nonnull align 8 dereferenceable(9) %0) unnamed_addr #1 comdat align 2 {
  %2 = alloca ptr, align 8
  store ptr %0, ptr %2, align 8
  %3 = load ptr, ptr %2, align 8
  %4 = getelementptr inbounds %class.MutexUnlocker, ptr %3, i32 0, i32 1
  %5 = load i8, ptr %4, align 8
  %6 = trunc i8 %5 to i1
  br i1 %6, label %7, label %10

7:                                                ; preds = %1
  %8 = getelementptr inbounds %class.MutexUnlocker, ptr %3, i32 0, i32 0
  %9 = load ptr, ptr %8, align 8
  call void @_ZN5Mutex28lock_without_safepoint_checkEv(ptr noundef nonnull align 8 dereferenceable(104) %9)
  br label %13

10:                                               ; preds = %1
  %11 = getelementptr inbounds %class.MutexUnlocker, ptr %3, i32 0, i32 0
  %12 = load ptr, ptr %11, align 8
  call void @_ZN5Mutex4lockEv(ptr noundef nonnull align 8 dereferenceable(104) %12)
  br label %13

13:                                               ; preds = %10, %7
  ret void
}

; Function Attrs: mustprogress nounwind uwtable
define linkonce_odr hidden void @_ZN13MutexUnlockerC2EP5MutexNS0_18SafepointCheckFlagE(ptr noundef nonnull align 8 dereferenceable(9) %0, ptr noundef %1, i32 noundef %2) unnamed_addr #1 comdat align 2 {
  %4 = alloca ptr, align 8
  %5 = alloca ptr, align 8
  %6 = alloca i32, align 4
  store ptr %0, ptr %4, align 8
  store ptr %1, ptr %5, align 8
  store i32 %2, ptr %6, align 4
  %7 = load ptr, ptr %4, align 8
  %8 = getelementptr inbounds %class.MutexUnlocker, ptr %7, i32 0, i32 0
  %9 = load ptr, ptr %5, align 8
  store ptr %9, ptr %8, align 8
  %10 = getelementptr inbounds %class.MutexUnlocker, ptr %7, i32 0, i32 1
  %11 = load i32, ptr %6, align 4
  %12 = icmp eq i32 %11, 1
  %13 = zext i1 %12 to i8
  store i8 %13, ptr %10, align 8
  %14 = getelementptr inbounds %class.MutexUnlocker, ptr %7, i32 0, i32 0
  %15 = load ptr, ptr %14, align 8
  call void @_ZN5Mutex6unlockEv(ptr noundef nonnull align 8 dereferenceable(104) %15)
  ret void
}

; Function Attrs: mustprogress nounwind uwtable
define hidden void @_ZN13JVMCICompiler24stopping_compiler_threadEP14CompilerThread(ptr noundef nonnull align 8 dereferenceable(200) %0, ptr noundef %1) unnamed_addr #1 align 2 {
  %3 = alloca ptr, align 8
  %4 = alloca ptr, align 8
  %5 = alloca ptr, align 8
  %6 = alloca %class.MutexUnlocker, align 8
  store ptr %0, ptr %3, align 8
  store ptr %1, ptr %4, align 8
  %7 = load i8, ptr @UseJVMCINativeLibrary, align 1
  %8 = trunc i8 %7 to i1
  br i1 %8, label %9, label %20

9:                                                ; preds = %2
  %10 = load ptr, ptr %4, align 8
  %11 = call noundef ptr @_ZN5JVMCI16compiler_runtimeEP10JavaThreadb(ptr noundef %10, i1 noundef zeroext false)
  store ptr %11, ptr %5, align 8
  %12 = load ptr, ptr %5, align 8
  %13 = icmp ne ptr %12, null
  br i1 %13, label %14, label %19

14:                                               ; preds = %9
  %15 = load ptr, ptr @CompileThread_lock, align 8
  call void @_ZN13MutexUnlockerC2EP5MutexNS0_18SafepointCheckFlagE(ptr noundef nonnull align 8 dereferenceable(9) %6, ptr noundef %15, i32 noundef 0)
  %16 = load ptr, ptr %5, align 8
  %17 = load ptr, ptr %4, align 8
  %18 = call noundef zeroext i1 @_ZN12JVMCIRuntime13detach_threadEP10JavaThreadPKcb(ptr noundef nonnull align 8 dereferenceable(93) %16, ptr noundef %17, ptr noundef @.str.9, i1 noundef zeroext true)
  call void @_ZN13MutexUnlockerD2Ev(ptr noundef nonnull align 8 dereferenceable(9) %6) #9
  br label %19

19:                                               ; preds = %14, %9
  br label %20

20:                                               ; preds = %19, %2
  ret void
}