; Function Attrs: mustprogress nounwind uwtable
define hidden void @_ZN13JVMCICompiler24stopping_compiler_threadEP14CompilerThread(ptr nocapture nonnull readnone align 8 %0, ptr noundef %1) unnamed_addr #1 align 2 {
  %3 = load i8, ptr @UseJVMCINativeLibrary, align 1
  %4 = trunc i8 %3 to i1
  br i1 %4, label %5, label %9

5:                                                ; preds = %2
  %6 = tail call noundef ptr @_ZN5JVMCI16compiler_runtimeEP10JavaThreadb(ptr noundef %1, i1 noundef zeroext false) #10
  %.not = icmp eq ptr %6, null
  br i1 %.not, label %9, label %_ZN13MutexUnlockerD2Ev.exit

_ZN13MutexUnlockerD2Ev.exit:                      ; preds = %5
  %7 = load ptr, ptr @CompileThread_lock, align 8
  tail call void @_ZN5Mutex6unlockEv(ptr noundef nonnull align 8 dereferenceable(104) %7) #10
  %8 = tail call noundef zeroext i1 @_ZN12JVMCIRuntime13detach_threadEP10JavaThreadPKcb(ptr noundef nonnull align 8 dereferenceable(93) %6, ptr noundef %1, ptr noundef nonnull @.str.9, i1 noundef zeroext true) #10
  tail call void @_ZN5Mutex4lockEv(ptr noundef nonnull align 8 dereferenceable(104) %7) #10
  br label %9

9:                                                ; preds = %5, %_ZN13MutexUnlockerD2Ev.exit, %2
  ret void
}